target datalayout = "e-m:e-p270:32:32-p271:32:32-p272:64:64-i64:64-i128:128-f80:128-n8:16:32:64-S128"
target triple = "x86_64-pc-linux-gnu"

%struct.jpeg_compress_struct = type { ptr, ptr, ptr, ptr, i32, i32, ptr, i32, i32, i32, i32, double, i32, i32, i32, ptr, [4 x ptr], [4 x ptr], [4 x ptr], [16 x i8], [16 x i8], [16 x i8], i32, ptr, i32, i32, i32, i32, i32, i32, i32, i32, i32, i8, i8, i8, i16, i16, i32, i32, i32, i32, i32, i32, i32, [4 x ptr], i32, i32, i32, [10 x i32], i32, i32, i32, i32, ptr, ptr, ptr, ptr, ptr, ptr, ptr, ptr, ptr, ptr, i32 }
%struct.jpeg_memory_mgr = type { ptr, ptr, ptr, ptr, ptr, ptr, ptr, ptr, ptr, ptr, ptr, i64, i64 }
%struct.arith_entropy_encoder = type { %struct.jpeg_entropy_encoder, i64, i64, i64, i64, i32, i32, [4 x i32], [4 x i32], i32, i32, [16 x ptr], [16 x ptr], [4 x i8] }
%struct.jpeg_entropy_encoder = type { ptr, ptr, ptr, ptr }
%struct.jpeg_error_mgr = type { ptr, ptr, ptr, ptr, ptr, i32, %union.anon, i32, i64, ptr, i32, ptr, i32, i32 }
%union.anon = type { [8 x i32], [48 x i8] }
%struct.jpeg_component_info = type { i32, i32, i32, i32, i32, i32, i32, i32, i32, i32, i32, i32, i32, i32, i32, i32, i32, i32, i32, ptr, ptr }

; Function Attrs: nounwind uwtable
define internal void @start_pass(ptr noundef %0, i32 noundef %1) #0 {
  %3 = alloca ptr, align 8
  %4 = alloca i32, align 4
  %5 = alloca ptr, align 8
  %6 = alloca i32, align 4
  %7 = alloca i32, align 4
  %8 = alloca ptr, align 8
  store ptr %0, ptr %3, align 8, !tbaa !3
  store i32 %1, ptr %4, align 4, !tbaa !35
  call void @llvm.lifetime.start.p0(i64 8, ptr %5) #3
  %9 = load ptr, ptr %3, align 8, !tbaa !3
  %10 = getelementptr inbounds nuw %struct.jpeg_compress_struct, ptr %9, i32 0, i32 62
  %11 = load ptr, ptr %10, align 8, !tbaa !30
  store ptr %11, ptr %5, align 8, !tbaa !29
  call void @llvm.lifetime.start.p0(i64 4, ptr %6) #3
  call void @llvm.lifetime.start.p0(i64 4, ptr %7) #3
  call void @llvm.lifetime.start.p0(i64 8, ptr %8) #3
  %12 = load i32, ptr %4, align 4, !tbaa !35
  %13 = icmp ne i32 %12, 0
  br i1 %13, label %14, label %25

14:                                               ; preds = %2
  %15 = load ptr, ptr %3, align 8, !tbaa !3
  %16 = getelementptr inbounds nuw %struct.jpeg_compress_struct, ptr %15, i32 0, i32 0
  %17 = load ptr, ptr %16, align 8, !tbaa !41
  %18 = getelementptr inbounds nuw %struct.jpeg_error_mgr, ptr %17, i32 0, i32 5
  store i32 47, ptr %18, align 8, !tbaa !42
  %19 = load ptr, ptr %3, align 8, !tbaa !3
  %20 = getelementptr inbounds nuw %struct.jpeg_compress_struct, ptr %19, i32 0, i32 0
  %21 = load ptr, ptr %20, align 8, !tbaa !41
  %22 = getelementptr inbounds nuw %struct.jpeg_error_mgr, ptr %21, i32 0, i32 0
  %23 = load ptr, ptr %22, align 8, !tbaa !45
  %24 = load ptr, ptr %3, align 8, !tbaa !3
  call void %23(ptr noundef %24)
  br label %25

25:                                               ; preds = %14, %2
  %26 = load ptr, ptr %3, align 8, !tbaa !3
  %27 = getelementptr inbounds nuw %struct.jpeg_compress_struct, ptr %26, i32 0, i32 40
  %28 = load i32, ptr %27, align 4, !tbaa !46
  %29 = icmp ne i32 %28, 0
  br i1 %29, label %30, label %64

30:                                               ; preds = %25
  %31 = load ptr, ptr %3, align 8, !tbaa !3
  %32 = getelementptr inbounds nuw %struct.jpeg_compress_struct, ptr %31, i32 0, i32 52
  %33 = load i32, ptr %32, align 4, !tbaa !47
  %34 = icmp eq i32 %33, 0
  br i1 %34, label %35, label %49

35:                                               ; preds = %30
  %36 = load ptr, ptr %3, align 8, !tbaa !3
  %37 = getelementptr inbounds nuw %struct.jpeg_compress_struct, ptr %36, i32 0, i32 50
  %38 = load i32, ptr %37, align 4, !tbaa !48
  %39 = icmp eq i32 %38, 0
  br i1 %39, label %40, label %44

40:                                               ; preds = %35
  %41 = load ptr, ptr %5, align 8, !tbaa !29
  %42 = getelementptr inbounds nuw %struct.arith_entropy_encoder, ptr %41, i32 0, i32 0
  %43 = getelementptr inbounds nuw %struct.jpeg_entropy_encoder, ptr %42, i32 0, i32 1
  store ptr @encode_mcu_DC_first, ptr %43, align 8, !tbaa !49
  br label %48

44:                                               ; preds = %35
  %45 = load ptr, ptr %5, align 8, !tbaa !29
  %46 = getelementptr inbounds nuw %struct.arith_entropy_encoder, ptr %45, i32 0, i32 0
  %47 = getelementptr inbounds nuw %struct.jpeg_entropy_encoder, ptr %46, i32 0, i32 1
  store ptr @encode_mcu_AC_first, ptr %47, align 8, !tbaa !49
  br label %48

48:                                               ; preds = %44, %40
  br label %63

49:                                               ; preds = %30
  %50 = load ptr, ptr %3, align 8, !tbaa !3
  %51 = getelementptr inbounds nuw %struct.jpeg_compress_struct, ptr %50, i32 0, i32 50
  %52 = load i32, ptr %51, align 4, !tbaa !48
  %53 = icmp eq i32 %52, 0
  br i1 %53, label %54, label %58

54:                                               ; preds = %49
  %55 = load ptr, ptr %5, align 8, !tbaa !29
  %56 = getelementptr inbounds nuw %struct.arith_entropy_encoder, ptr %55, i32 0, i32 0
  %57 = getelementptr inbounds nuw %struct.jpeg_entropy_encoder, ptr %56, i32 0, i32 1
  store ptr @encode_mcu_DC_refine, ptr %57, align 8, !tbaa !49
  br label %62

58:                                               ; preds = %49
  %59 = load ptr, ptr %5, align 8, !tbaa !29
  %60 = getelementptr inbounds nuw %struct.arith_entropy_encoder, ptr %59, i32 0, i32 0
  %61 = getelementptr inbounds nuw %struct.jpeg_entropy_encoder, ptr %60, i32 0, i32 1
  store ptr @encode_mcu_AC_refine, ptr %61, align 8, !tbaa !49
  br label %62

62:                                               ; preds = %58, %54
  br label %63

63:                                               ; preds = %62, %48
  br label %68

64:                                               ; preds = %25
  %65 = load ptr, ptr %5, align 8, !tbaa !29
  %66 = getelementptr inbounds nuw %struct.arith_entropy_encoder, ptr %65, i32 0, i32 0
  %67 = getelementptr inbounds nuw %struct.jpeg_entropy_encoder, ptr %66, i32 0, i32 1
  store ptr @encode_mcu, ptr %67, align 8, !tbaa !49
  br label %68

68:                                               ; preds = %64, %63
  store i32 0, ptr %6, align 4, !tbaa !35
  br label %69

69:                                               ; preds = %225, %68
  %70 = load i32, ptr %6, align 4, !tbaa !35
  %71 = load ptr, ptr %3, align 8, !tbaa !3
  %72 = getelementptr inbounds nuw %struct.jpeg_compress_struct, ptr %71, i32 0, i32 44
  %73 = load i32, ptr %72, align 4, !tbaa !50
  %74 = icmp slt i32 %70, %73
  br i1 %74, label %75, label %228

75:                                               ; preds = %69
  %76 = load ptr, ptr %3, align 8, !tbaa !3
  %77 = getelementptr inbounds nuw %struct.jpeg_compress_struct, ptr %76, i32 0, i32 45
  %78 = load i32, ptr %6, align 4, !tbaa !35
  %79 = sext i32 %78 to i64
  %80 = getelementptr inbounds [4 x ptr], ptr %77, i64 0, i64 %79
  %81 = load ptr, ptr %80, align 8, !tbaa !29
  store ptr %81, ptr %8, align 8, !tbaa !29
  %82 = load ptr, ptr %3, align 8, !tbaa !3
  %83 = getelementptr inbounds nuw %struct.jpeg_compress_struct, ptr %82, i32 0, i32 40
  %84 = load i32, ptr %83, align 4, !tbaa !46
  %85 = icmp eq i32 %84, 0
  br i1 %85, label %96, label %86

86:                                               ; preds = %75
  %87 = load ptr, ptr %3, align 8, !tbaa !3
  %88 = getelementptr inbounds nuw %struct.jpeg_compress_struct, ptr %87, i32 0, i32 50
  %89 = load i32, ptr %88, align 4, !tbaa !48
  %90 = icmp eq i32 %89, 0
  br i1 %90, label %91, label %160

91:                                               ; preds = %86
  %92 = load ptr, ptr %3, align 8, !tbaa !3
  %93 = getelementptr inbounds nuw %struct.jpeg_compress_struct, ptr %92, i32 0, i32 52
  %94 = load i32, ptr %93, align 4, !tbaa !47
  %95 = icmp eq i32 %94, 0
  br i1 %95, label %96, label %160

96:                                               ; preds = %91, %75
  %97 = load ptr, ptr %8, align 8, !tbaa !29
  %98 = getelementptr inbounds nuw %struct.jpeg_component_info, ptr %97, i32 0, i32 5
  %99 = load i32, ptr %98, align 4, !tbaa !51
  store i32 %99, ptr %7, align 4, !tbaa !35
  %100 = load i32, ptr %7, align 4, !tbaa !35
  %101 = icmp slt i32 %100, 0
  br i1 %101, label %105, label %102

102:                                              ; preds = %96
  %103 = load i32, ptr %7, align 4, !tbaa !35
  %104 = icmp sge i32 %103, 16
  br i1 %104, label %105, label %122

105:                                              ; preds = %102, %96
  %106 = load ptr, ptr %3, align 8, !tbaa !3
  %107 = getelementptr inbounds nuw %struct.jpeg_compress_struct, ptr %106, i32 0, i32 0
  %108 = load ptr, ptr %107, align 8, !tbaa !41
  %109 = getelementptr inbounds nuw %struct.jpeg_error_mgr, ptr %108, i32 0, i32 5
  store i32 125, ptr %109, align 8, !tbaa !42
  %110 = load i32, ptr %7, align 4, !tbaa !35
  %111 = load ptr, ptr %3, align 8, !tbaa !3
  %112 = getelementptr inbounds nuw %struct.jpeg_compress_struct, ptr %111, i32 0, i32 0
  %113 = load ptr, ptr %112, align 8, !tbaa !41
  %114 = getelementptr inbounds nuw %struct.jpeg_error_mgr, ptr %113, i32 0, i32 6
  %115 = getelementptr inbounds [8 x i32], ptr %114, i64 0, i64 0
  store i32 %110, ptr %115, align 4, !tbaa !40
  %116 = load ptr, ptr %3, align 8, !tbaa !3
  %117 = getelementptr inbounds nuw %struct.jpeg_compress_struct, ptr %116, i32 0, i32 0
  %118 = load ptr, ptr %117, align 8, !tbaa !41
  %119 = getelementptr inbounds nuw %struct.jpeg_error_mgr, ptr %118, i32 0, i32 0
  %120 = load ptr, ptr %119, align 8, !tbaa !45
  %121 = load ptr, ptr %3, align 8, !tbaa !3
  call void %120(ptr noundef %121)
  br label %122

122:                                              ; preds = %105, %102
  %123 = load ptr, ptr %5, align 8, !tbaa !29
  %124 = getelementptr inbounds nuw %struct.arith_entropy_encoder, ptr %123, i32 0, i32 11
  %125 = load i32, ptr %7, align 4, !tbaa !35
  %126 = sext i32 %125 to i64
  %127 = getelementptr inbounds [16 x ptr], ptr %124, i64 0, i64 %126
  %128 = load ptr, ptr %127, align 8, !tbaa !36
  %129 = icmp eq ptr %128, null
  br i1 %129, label %130, label %143

130:                                              ; preds = %122
  %131 = load ptr, ptr %3, align 8, !tbaa !3
  %132 = getelementptr inbounds nuw %struct.jpeg_compress_struct, ptr %131, i32 0, i32 1
  %133 = load ptr, ptr %132, align 8, !tbaa !8
  %134 = getelementptr inbounds nuw %struct.jpeg_memory_mgr, ptr %133, i32 0, i32 0
  %135 = load ptr, ptr %134, align 8, !tbaa !26
  %136 = load ptr, ptr %3, align 8, !tbaa !3
  %137 = call ptr %135(ptr noundef %136, i32 noundef 1, i64 noundef 64)
  %138 = load ptr, ptr %5, align 8, !tbaa !29
  %139 = getelementptr inbounds nuw %struct.arith_entropy_encoder, ptr %138, i32 0, i32 11
  %140 = load i32, ptr %7, align 4, !tbaa !35
  %141 = sext i32 %140 to i64
  %142 = getelementptr inbounds [16 x ptr], ptr %139, i64 0, i64 %141
  store ptr %137, ptr %142, align 8, !tbaa !36
  br label %143

143:                                              ; preds = %130, %122
  %144 = load ptr, ptr %5, align 8, !tbaa !29
  %145 = getelementptr inbounds nuw %struct.arith_entropy_encoder, ptr %144, i32 0, i32 11
  %146 = load i32, ptr %7, align 4, !tbaa !35
  %147 = sext i32 %146 to i64
  %148 = getelementptr inbounds [16 x ptr], ptr %145, i64 0, i64 %147
  %149 = load ptr, ptr %148, align 8, !tbaa !36
  call void @llvm.memset.p0.i64(ptr align 1 %149, i8 0, i64 64, i1 false)
  %150 = load ptr, ptr %5, align 8, !tbaa !29
  %151 = getelementptr inbounds nuw %struct.arith_entropy_encoder, ptr %150, i32 0, i32 7
  %152 = load i32, ptr %6, align 4, !tbaa !35
  %153 = sext i32 %152 to i64
  %154 = getelementptr inbounds [4 x i32], ptr %151, i64 0, i64 %153
  store i32 0, ptr %154, align 4, !tbaa !35
  %155 = load ptr, ptr %5, align 8, !tbaa !29
  %156 = getelementptr inbounds nuw %struct.arith_entropy_encoder, ptr %155, i32 0, i32 8
  %157 = load i32, ptr %6, align 4, !tbaa !35
  %158 = sext i32 %157 to i64
  %159 = getelementptr inbounds [4 x i32], ptr %156, i64 0, i64 %158
  store i32 0, ptr %159, align 4, !tbaa !35
  br label %160

160:                                              ; preds = %143, %91, %86
  %161 = load ptr, ptr %3, align 8, !tbaa !3
  %162 = getelementptr inbounds nuw %struct.jpeg_compress_struct, ptr %161, i32 0, i32 40
  %163 = load i32, ptr %162, align 4, !tbaa !46
  %164 = icmp eq i32 %163, 0
  br i1 %164, label %170, label %165

165:                                              ; preds = %160
  %166 = load ptr, ptr %3, align 8, !tbaa !3
  %167 = getelementptr inbounds nuw %struct.jpeg_compress_struct, ptr %166, i32 0, i32 51
  %168 = load i32, ptr %167, align 8, !tbaa !53
  %169 = icmp ne i32 %168, 0
  br i1 %169, label %170, label %224

170:                                              ; preds = %165, %160
  %171 = load ptr, ptr %8, align 8, !tbaa !29
  %172 = getelementptr inbounds nuw %struct.jpeg_component_info, ptr %171, i32 0, i32 6
  %173 = load i32, ptr %172, align 8, !tbaa !54
  store i32 %173, ptr %7, align 4, !tbaa !35
  %174 = load i32, ptr %7, align 4, !tbaa !35
  %175 = icmp slt i32 %174, 0
  br i1 %175, label %179, label %176

176:                                              ; preds = %170
  %177 = load i32, ptr %7, align 4, !tbaa !35
  %178 = icmp sge i32 %177, 16
  br i1 %178, label %179, label %196

179:                                              ; preds = %176, %170
  %180 = load ptr, ptr %3, align 8, !tbaa !3
  %181 = getelementptr inbounds nuw %struct.jpeg_compress_struct, ptr %180, i32 0, i32 0
  %182 = load ptr, ptr %181, align 8, !tbaa !41
  %183 = getelementptr inbounds nuw %struct.jpeg_error_mgr, ptr %182, i32 0, i32 5
  store i32 125, ptr %183, align 8, !tbaa !42
  %184 = load i32, ptr %7, align 4, !tbaa !35
  %185 = load ptr, ptr %3, align 8, !tbaa !3
  %186 = getelementptr inbounds nuw %struct.jpeg_compress_struct, ptr %185, i32 0, i32 0
  %187 = load ptr, ptr %186, align 8, !tbaa !41
  %188 = getelementptr inbounds nuw %struct.jpeg_error_mgr, ptr %187, i32 0, i32 6
  %189 = getelementptr inbounds [8 x i32], ptr %188, i64 0, i64 0
  store i32 %184, ptr %189, align 4, !tbaa !40
  %190 = load ptr, ptr %3, align 8, !tbaa !3
  %191 = getelementptr inbounds nuw %struct.jpeg_compress_struct, ptr %190, i32 0, i32 0
  %192 = load ptr, ptr %191, align 8, !tbaa !41
  %193 = getelementptr inbounds nuw %struct.jpeg_error_mgr, ptr %192, i32 0, i32 0
  %194 = load ptr, ptr %193, align 8, !tbaa !45
  %195 = load ptr, ptr %3, align 8, !tbaa !3
  call void %194(ptr noundef %195)
  br label %196

196:                                              ; preds = %179, %176
  %197 = load ptr, ptr %5, align 8, !tbaa !29
  %198 = getelementptr inbounds nuw %struct.arith_entropy_encoder, ptr %197, i32 0, i32 12
  %199 = load i32, ptr %7, align 4, !tbaa !35
  %200 = sext i32 %199 to i64
  %201 = getelementptr inbounds [16 x ptr], ptr %198, i64 0, i64 %200
  %202 = load ptr, ptr %201, align 8, !tbaa !36
  %203 = icmp eq ptr %202, null
  br i1 %203, label %204, label %217

204:                                              ; preds = %196
  %205 = load ptr, ptr %3, align 8, !tbaa !3
  %206 = getelementptr inbounds nuw %struct.jpeg_compress_struct, ptr %205, i32 0, i32 1
  %207 = load ptr, ptr %206, align 8, !tbaa !8
  %208 = getelementptr inbounds nuw %struct.jpeg_memory_mgr, ptr %207, i32 0, i32 0
  %209 = load ptr, ptr %208, align 8, !tbaa !26
  %210 = load ptr, ptr %3, align 8, !tbaa !3
  %211 = call ptr %209(ptr noundef %210, i32 noundef 1, i64 noundef 256)
  %212 = load ptr, ptr %5, align 8, !tbaa !29
  %213 = getelementptr inbounds nuw %struct.arith_entropy_encoder, ptr %212, i32 0, i32 12
  %214 = load i32, ptr %7, align 4, !tbaa !35
  %215 = sext i32 %214 to i64
  %216 = getelementptr inbounds [16 x ptr], ptr %213, i64 0, i64 %215
  store ptr %211, ptr %216, align 8, !tbaa !36
  br label %217

217:                                              ; preds = %204, %196
  %218 = load ptr, ptr %5, align 8, !tbaa !29
  %219 = getelementptr inbounds nuw %struct.arith_entropy_encoder, ptr %218, i32 0, i32 12
  %220 = load i32, ptr %7, align 4, !tbaa !35
  %221 = sext i32 %220 to i64
  %222 = getelementptr inbounds [16 x ptr], ptr %219, i64 0, i64 %221
  %223 = load ptr, ptr %222, align 8, !tbaa !36
  call void @llvm.memset.p0.i64(ptr align 1 %223, i8 0, i64 256, i1 false)
  br label %224

224:                                              ; preds = %217, %165
  br label %225

225:                                              ; preds = %224
  %226 = load i32, ptr %6, align 4, !tbaa !35
  %227 = add nsw i32 %226, 1
  store i32 %227, ptr %6, align 4, !tbaa !35
  br label %69, !llvm.loop !55

228:                                              ; preds = %69
  %229 = load ptr, ptr %5, align 8, !tbaa !29
  %230 = getelementptr inbounds nuw %struct.arith_entropy_encoder, ptr %229, i32 0, i32 1
  store i64 0, ptr %230, align 8, !tbaa !56
  %231 = load ptr, ptr %5, align 8, !tbaa !29
  %232 = getelementptr inbounds nuw %struct.arith_entropy_encoder, ptr %231, i32 0, i32 2
  store i64 65536, ptr %232, align 8, !tbaa !57
  %233 = load ptr, ptr %5, align 8, !tbaa !29
  %234 = getelementptr inbounds nuw %struct.arith_entropy_encoder, ptr %233, i32 0, i32 3
  store i64 0, ptr %234, align 8, !tbaa !58
  %235 = load ptr, ptr %5, align 8, !tbaa !29
  %236 = getelementptr inbounds nuw %struct.arith_entropy_encoder, ptr %235, i32 0, i32 4
  store i64 0, ptr %236, align 8, !tbaa !59
  %237 = load ptr, ptr %5, align 8, !tbaa !29
  %238 = getelementptr inbounds nuw %struct.arith_entropy_encoder, ptr %237, i32 0, i32 5
  store i32 11, ptr %238, align 8, !tbaa !60
  %239 = load ptr, ptr %5, align 8, !tbaa !29
  %240 = getelementptr inbounds nuw %struct.arith_entropy_encoder, ptr %239, i32 0, i32 6
  store i32 -1, ptr %240, align 4, !tbaa !61
  %241 = load ptr, ptr %3, align 8, !tbaa !3
  %242 = getelementptr inbounds nuw %struct.jpeg_compress_struct, ptr %241, i32 0, i32 30
  %243 = load i32, ptr %242, align 8, !tbaa !62
  %244 = load ptr, ptr %5, align 8, !tbaa !29
  %245 = getelementptr inbounds nuw %struct.arith_entropy_encoder, ptr %244, i32 0, i32 9
  store i32 %243, ptr %245, align 8, !tbaa !63
  %246 = load ptr, ptr %5, align 8, !tbaa !29
  %247 = getelementptr inbounds nuw %struct.arith_entropy_encoder, ptr %246, i32 0, i32 10
  store i32 0, ptr %247, align 4, !tbaa !64
  call void @llvm.lifetime.end.p0(i64 8, ptr %8) #3
  call void @llvm.lifetime.end.p0(i64 4, ptr %7) #3
  call void @llvm.lifetime.end.p0(i64 4, ptr %6) #3
  call void @llvm.lifetime.end.p0(i64 8, ptr %5) #3
  ret void
}