; Function Attrs: nounwind uwtable
define internal void @start_pass(ptr noundef %0, i32 noundef %1) #0 {
  %3 = getelementptr inbounds nuw i8, ptr %0, i64 496
  %4 = load ptr, ptr %3, align 8, !tbaa !27
  %.not = icmp eq i32 %1, 0
  br i1 %.not, label %9, label %5

5:                                                ; preds = %2
  %6 = load ptr, ptr %0, align 8, !tbaa !33
  %7 = getelementptr inbounds nuw i8, ptr %6, i64 40
  store i32 47, ptr %7, align 8, !tbaa !34
  %8 = load ptr, ptr %6, align 8, !tbaa !37
  tail call void %8(ptr noundef nonnull %0) #3
  br label %9

9:                                                ; preds = %5, %2
  %10 = getelementptr inbounds nuw i8, ptr %0, i64 308
  %11 = load i32, ptr %10, align 4, !tbaa !38
  %.not71 = icmp eq i32 %11, 0
  br i1 %.not71, label %26, label %12

12:                                               ; preds = %9
  %13 = getelementptr inbounds nuw i8, ptr %0, i64 420
  %14 = load i32, ptr %13, align 4, !tbaa !39
  %15 = icmp eq i32 %14, 0
  %16 = getelementptr inbounds nuw i8, ptr %0, i64 412
  %17 = load i32, ptr %16, align 4, !tbaa !40
  %18 = icmp eq i32 %17, 0
  %19 = getelementptr inbounds nuw i8, ptr %4, i64 8
  br i1 %15, label %20, label %23

20:                                               ; preds = %12
  br i1 %18, label %21, label %22

21:                                               ; preds = %20
  store ptr @encode_mcu_DC_first, ptr %19, align 8, !tbaa !41
  br label %28

22:                                               ; preds = %20
  store ptr @encode_mcu_AC_first, ptr %19, align 8, !tbaa !41
  br label %28

23:                                               ; preds = %12
  br i1 %18, label %24, label %25

24:                                               ; preds = %23
  store ptr @encode_mcu_DC_refine, ptr %19, align 8, !tbaa !41
  br label %28

25:                                               ; preds = %23
  store ptr @encode_mcu_AC_refine, ptr %19, align 8, !tbaa !41
  br label %28

26:                                               ; preds = %9
  %27 = getelementptr inbounds nuw i8, ptr %4, i64 8
  store ptr @encode_mcu, ptr %27, align 8, !tbaa !41
  br label %28

28:                                               ; preds = %22, %21, %25, %24, %26
  %29 = getelementptr inbounds nuw i8, ptr %0, i64 324
  %30 = load i32, ptr %29, align 4, !tbaa !42
  %31 = icmp sgt i32 %30, 0
  br i1 %31, label %.lr.ph, label %._crit_edge

.lr.ph:                                           ; preds = %28
  %32 = getelementptr inbounds nuw i8, ptr %0, i64 328
  %33 = getelementptr inbounds nuw i8, ptr %0, i64 412
  %34 = getelementptr inbounds nuw i8, ptr %0, i64 420
  %35 = getelementptr inbounds nuw i8, ptr %4, i64 112
  %36 = getelementptr inbounds nuw i8, ptr %0, i64 8
  %37 = getelementptr inbounds nuw i8, ptr %4, i64 72
  %38 = getelementptr inbounds nuw i8, ptr %4, i64 88
  %39 = getelementptr inbounds nuw i8, ptr %0, i64 416
  %40 = getelementptr inbounds nuw i8, ptr %4, i64 240
  br label %41

41:                                               ; preds = %.lr.ph, %96
  %indvars.iv = phi i64 [ 0, %.lr.ph ], [ %indvars.iv.next, %96 ]
  %42 = getelementptr inbounds nuw [4 x ptr], ptr %32, i64 0, i64 %indvars.iv
  %43 = load ptr, ptr %42, align 8, !tbaa !43
  %44 = load i32, ptr %10, align 4, !tbaa !38
  %45 = icmp eq i32 %44, 0
  br i1 %45, label %52, label %46

46:                                               ; preds = %41
  %47 = load i32, ptr %33, align 4, !tbaa !40
  %48 = icmp eq i32 %47, 0
  br i1 %48, label %49, label %.thread

49:                                               ; preds = %46
  %50 = load i32, ptr %34, align 4, !tbaa !39
  %51 = icmp eq i32 %50, 0
  br i1 %51, label %52, label %.thread

52:                                               ; preds = %49, %41
  %53 = getelementptr inbounds nuw i8, ptr %43, i64 20
  %54 = load i32, ptr %53, align 4, !tbaa !44
  %or.cond = icmp ugt i32 %54, 15
  br i1 %or.cond, label %55, label %61

55:                                               ; preds = %52
  %56 = load ptr, ptr %0, align 8, !tbaa !33
  %57 = getelementptr inbounds nuw i8, ptr %56, i64 40
  store i32 125, ptr %57, align 8, !tbaa !34
  %58 = getelementptr inbounds nuw i8, ptr %56, i64 44
  store i32 %54, ptr %58, align 4, !tbaa !32
  %59 = load ptr, ptr %0, align 8, !tbaa !33
  %60 = load ptr, ptr %59, align 8, !tbaa !37
  tail call void %60(ptr noundef nonnull %0) #3
  br label %61

61:                                               ; preds = %52, %55
  %62 = sext i32 %54 to i64
  %63 = getelementptr inbounds [16 x ptr], ptr %35, i64 0, i64 %62
  %64 = load ptr, ptr %63, align 8, !tbaa !46
  %65 = icmp eq ptr %64, null
  br i1 %65, label %66, label %70

66:                                               ; preds = %61
  %67 = load ptr, ptr %36, align 8, !tbaa !3
  %68 = load ptr, ptr %67, align 8, !tbaa !24
  %69 = tail call ptr %68(ptr noundef nonnull %0, i32 noundef 1, i64 noundef 64) #3
  store ptr %69, ptr %63, align 8, !tbaa !46
  br label %70

70:                                               ; preds = %61, %66
  %71 = phi ptr [ %69, %66 ], [ %64, %61 ]
  tail call void @llvm.memset.p0.i64(ptr noundef nonnull align 1 dereferenceable(64) %71, i8 0, i64 64, i1 false)
  %72 = getelementptr inbounds nuw [4 x i32], ptr %37, i64 0, i64 %indvars.iv
  store i32 0, ptr %72, align 4, !tbaa !48
  %73 = getelementptr inbounds nuw [4 x i32], ptr %38, i64 0, i64 %indvars.iv
  store i32 0, ptr %73, align 4, !tbaa !48
  %.pre = load i32, ptr %10, align 4, !tbaa !38
  %74 = icmp eq i32 %.pre, 0
  br i1 %74, label %76, label %.thread

.thread:                                          ; preds = %46, %49, %70
  %75 = load i32, ptr %39, align 8, !tbaa !49
  %.not72 = icmp eq i32 %75, 0
  br i1 %.not72, label %96, label %76

76:                                               ; preds = %.thread, %70
  %77 = getelementptr inbounds nuw i8, ptr %43, i64 24
  %78 = load i32, ptr %77, align 8, !tbaa !50
  %or.cond3 = icmp ugt i32 %78, 15
  br i1 %or.cond3, label %79, label %85

79:                                               ; preds = %76
  %80 = load ptr, ptr %0, align 8, !tbaa !33
  %81 = getelementptr inbounds nuw i8, ptr %80, i64 40
  store i32 125, ptr %81, align 8, !tbaa !34
  %82 = getelementptr inbounds nuw i8, ptr %80, i64 44
  store i32 %78, ptr %82, align 4, !tbaa !32
  %83 = load ptr, ptr %0, align 8, !tbaa !33
  %84 = load ptr, ptr %83, align 8, !tbaa !37
  tail call void %84(ptr noundef nonnull %0) #3
  br label %85

85:                                               ; preds = %76, %79
  %86 = sext i32 %78 to i64
  %87 = getelementptr inbounds [16 x ptr], ptr %40, i64 0, i64 %86
  %88 = load ptr, ptr %87, align 8, !tbaa !46
  %89 = icmp eq ptr %88, null
  br i1 %89, label %90, label %94

90:                                               ; preds = %85
  %91 = load ptr, ptr %36, align 8, !tbaa !3
  %92 = load ptr, ptr %91, align 8, !tbaa !24
  %93 = tail call ptr %92(ptr noundef nonnull %0, i32 noundef 1, i64 noundef 256) #3
  store ptr %93, ptr %87, align 8, !tbaa !46
  br label %94

94:                                               ; preds = %90, %85
  %95 = phi ptr [ %93, %90 ], [ %88, %85 ]
  tail call void @llvm.memset.p0.i64(ptr noundef nonnull align 1 dereferenceable(256) %95, i8 0, i64 256, i1 false)
  br label %96

96:                                               ; preds = %.thread, %94
  %indvars.iv.next = add nuw nsw i64 %indvars.iv, 1
  %97 = load i32, ptr %29, align 4, !tbaa !42
  %98 = sext i32 %97 to i64
  %99 = icmp slt i64 %indvars.iv.next, %98
  br i1 %99, label %41, label %._crit_edge, !llvm.loop !51

._crit_edge:                                      ; preds = %96, %28
  %100 = getelementptr inbounds nuw i8, ptr %4, i64 32
  store i64 0, ptr %100, align 8, !tbaa !53
  %101 = getelementptr inbounds nuw i8, ptr %4, i64 40
  store i64 65536, ptr %101, align 8, !tbaa !54
  %102 = getelementptr inbounds nuw i8, ptr %4, i64 48
  %103 = getelementptr inbounds nuw i8, ptr %4, i64 64
  tail call void @llvm.memset.p0.i64(ptr noundef nonnull align 8 dereferenceable(16) %102, i8 0, i64 16, i1 false)
  store i32 11, ptr %103, align 8, !tbaa !55
  %104 = getelementptr inbounds nuw i8, ptr %4, i64 68
  store i32 -1, ptr %104, align 4, !tbaa !56
  %105 = getelementptr inbounds nuw i8, ptr %0, i64 280
  %106 = load i32, ptr %105, align 8, !tbaa !57
  %107 = getelementptr inbounds nuw i8, ptr %4, i64 104
  store i32 %106, ptr %107, align 8, !tbaa !58
  %108 = getelementptr inbounds nuw i8, ptr %4, i64 108
  store i32 0, ptr %108, align 4, !tbaa !59
  ret void
}